((dp1
S'CK'
p2
S'7YukpNp6LqadnEk2RQiOzoBms'
p3
sS'CS'
p4
S'Tx8zM0apLR5sG0uCVQltobohacjnCK07KP6gs1EQBv5WHiJnFn'
p5
sS'AN'
p6
S'MEXen140'
p7
s(dp8
S'UN'
p9
S'MX_en140'
p10
sS'PW'
p11
S'overdriven'
p12
stp13
.
