(dp1
S'mx140-gobernadores'
p2
V618879716834021376
p3
sS'mx140-pri'
p4
V618883248064720896
p5
sS'puebla140'
p6
V618883103235424256
p7
sS'mx140-prd'
p8
V618884589092646912
p9
sS'mx140-ejecutivo'
p10
V618884974188589056
p11
sS'mx140-pan'
p12
V618884163958120448
p13
sS'mx140-opinion'
p14
V618885881638694912
p15
sS'mx140-senadores'
p16
V618885816710856704
p17
sS'mx140-diputados'
p18
V618885998831734784
p19
s.