(dp1
S'mx140-gobernadores'
p2
V620804367952707584
p3
sS'mx140-pri'
p4
V620886957594427392
p5
sS'puebla140'
p6
V620926706921009153
p7
sS'mx140-prd'
p8
V620813789651406848
p9
sS'mx140-ejecutivo'
p10
V620926486611132416
p11
sS'mx140-pan'
p12
V620922735816871938
p13
sS'mx140-opinion'
p14
V620926663036043264
p15
sS'mx140-senadores'
p16
V620926331400761344
p17
sS'mx140-diputados'
p18
V620923606478946304
p19
s.